; Function Attrs: mustprogress uwtable
define noundef i32 @_ZNK2cv3dnn14dnn4_v202412233Net4Impl20resolvePinOutputNameERNS1_6detail9LayerDataERKNSt7__cxx1112basic_stringIcSt11char_traitsIcESaIcEEE(ptr noundef nonnull align 8 dereferenceable(504) %0, ptr noundef nonnull align 8 dereferenceable(576) %1, ptr noundef nonnull align 8 dereferenceable(32) %2) local_unnamed_addr #3 align 2 personality ptr @__gxx_personality_v0 {
  %4 = alloca %"struct.cv::Ptr.84", align 8
  %5 = getelementptr inbounds nuw i8, ptr %2, i64 8
  %6 = load i64, ptr %5, align 8, !tbaa !26
  %7 = icmp eq i64 %6, 0
  br i1 %7, label %40, label %8

8:                                                ; preds = %3
  call void @llvm.lifetime.start.p0(i64 16, ptr nonnull %4) #35
  call void @_ZNK2cv3dnn14dnn4_v202412233Net4Impl16getLayerInstanceERNS1_6detail9LayerDataE(ptr dead_on_unwind nonnull writable sret(%"struct.cv::Ptr.84") align 8 %4, ptr noundef nonnull align 8 dereferenceable(504) %0, ptr noundef nonnull align 8 dereferenceable(576) %1)
  %9 = load ptr, ptr %4, align 8, !tbaa !98
  %10 = load ptr, ptr %9, align 8, !tbaa !10
  %11 = getelementptr inbounds nuw i8, ptr %10, i64 112
  %12 = load ptr, ptr %11, align 8
  %13 = invoke noundef i32 %12(ptr noundef nonnull align 8 dereferenceable(100) %9, ptr noundef nonnull align 8 dereferenceable(32) %2)
          to label %14 unwind label %38

14:                                               ; preds = %8
  %15 = getelementptr inbounds nuw i8, ptr %4, i64 8
  %16 = load ptr, ptr %15, align 8, !tbaa !30
  %.not.i.i = icmp eq ptr %16, null
  br i1 %.not.i.i, label %_ZNSt12__shared_ptrIN2cv3dnn14dnn4_v202412235LayerELN9__gnu_cxx12_Lock_policyE2EED2Ev.exit, label %17

17:                                               ; preds = %14
  %18 = getelementptr inbounds nuw i8, ptr %16, i64 8
  %19 = load atomic i64, ptr %18 acquire, align 8
  %20 = icmp eq i64 %19, 4294967297
  %21 = trunc i64 %19 to i32
  br i1 %20, label %22, label %30

22:                                               ; preds = %17
  store i32 0, ptr %18, align 8, !tbaa !33
  %23 = getelementptr inbounds nuw i8, ptr %16, i64 12
  store i32 0, ptr %23, align 4, !tbaa !35
  %24 = load ptr, ptr %16, align 8, !tbaa !10
  %25 = getelementptr inbounds nuw i8, ptr %24, i64 16
  %26 = load ptr, ptr %25, align 8
  call void %26(ptr noundef nonnull align 8 dereferenceable(16) %16) #35
  %27 = load ptr, ptr %16, align 8, !tbaa !10
  %28 = getelementptr inbounds nuw i8, ptr %27, i64 24
  %29 = load ptr, ptr %28, align 8
  call void %29(ptr noundef nonnull align 8 dereferenceable(16) %16) #35
  br label %_ZNSt12__shared_ptrIN2cv3dnn14dnn4_v202412235LayerELN9__gnu_cxx12_Lock_policyE2EED2Ev.exit

30:                                               ; preds = %17
  %31 = load i8, ptr @__libc_single_threaded, align 1, !tbaa !36
  %.not.i.i.i = icmp eq i8 %31, 0
  br i1 %.not.i.i.i, label %34, label %32

32:                                               ; preds = %30
  %33 = add nsw i32 %21, -1
  store i32 %33, ptr %18, align 4, !tbaa !37
  br label %_ZN9__gnu_cxx27__exchange_and_add_dispatchEPii.exit.i.i.i

34:                                               ; preds = %30
  %35 = atomicrmw volatile add ptr %18, i32 -1 acq_rel, align 4
  br label %_ZN9__gnu_cxx27__exchange_and_add_dispatchEPii.exit.i.i.i

_ZN9__gnu_cxx27__exchange_and_add_dispatchEPii.exit.i.i.i: ; preds = %34, %32
  %.0.i.i.i.i = phi i32 [ %21, %32 ], [ %35, %34 ]
  %36 = icmp eq i32 %.0.i.i.i.i, 1
  br i1 %36, label %37, label %_ZNSt12__shared_ptrIN2cv3dnn14dnn4_v202412235LayerELN9__gnu_cxx12_Lock_policyE2EED2Ev.exit, !prof !38

37:                                               ; preds = %_ZN9__gnu_cxx27__exchange_and_add_dispatchEPii.exit.i.i.i
  call void @_ZNSt16_Sp_counted_baseILN9__gnu_cxx12_Lock_policyE2EE24_M_release_last_use_coldEv(ptr noundef nonnull align 8 dereferenceable(16) %16) #35
  br label %_ZNSt12__shared_ptrIN2cv3dnn14dnn4_v202412235LayerELN9__gnu_cxx12_Lock_policyE2EED2Ev.exit

_ZNSt12__shared_ptrIN2cv3dnn14dnn4_v202412235LayerELN9__gnu_cxx12_Lock_policyE2EED2Ev.exit: ; preds = %14, %22, %_ZN9__gnu_cxx27__exchange_and_add_dispatchEPii.exit.i.i.i, %37
  call void @llvm.lifetime.end.p0(i64 16, ptr nonnull %4) #35
  br label %40

38:                                               ; preds = %8
  %39 = landingpad { ptr, i32 }
          cleanup
  call void @_ZNSt12__shared_ptrIN2cv3dnn14dnn4_v202412235LayerELN9__gnu_cxx12_Lock_policyE2EED2Ev(ptr noundef nonnull align 8 dereferenceable(16) %4) #35
  call void @llvm.lifetime.end.p0(i64 16, ptr nonnull %4) #35
  resume { ptr, i32 } %39

40:                                               ; preds = %3, %_ZNSt12__shared_ptrIN2cv3dnn14dnn4_v202412235LayerELN9__gnu_cxx12_Lock_policyE2EED2Ev.exit
  %.0 = phi i32 [ %13, %_ZNSt12__shared_ptrIN2cv3dnn14dnn4_v202412235LayerELN9__gnu_cxx12_Lock_policyE2EED2Ev.exit ], [ 0, %3 ]
  ret i32 %.0
}